(dp0
S'I-LOC'
p1
I9
sS'B-ORG'
p2
I6
sS'I-PER'
p3
I5
sS'[CLS]'
p4
I11
sS'[SEP]'
p5
I12
sS'O'
p6
I3
sS'X'
p7
I10
sS'B-LOC'
p8
I8
sS'I-MISC'
p9
I2
sS'B-MISC'
p10
I1
sS'I-ORG'
p11
I7
sS'[PAD]'
p12
I0
sS'B-PER'
p13
I4
s.